target datalayout = "e-m:e-p270:32:32-p271:32:32-p272:64:64-i64:64-i128:128-f80:128-n8:16:32:64-S128"
target triple = "x86_64-pc-linux-gnu"

%struct.ImVec2 = type { float, float }
%struct.ImGuiIO = type { i32, i32, %struct.ImVec2, float, float, ptr, ptr, ptr, ptr, float, i8, ptr, %struct.ImVec2, i8, i8, i8, i8, i8, i8, i8, i8, i8, i8, float, float, float, float, float, float, i8, i8, i8, i8, i8, i8, i8, i8, i8, i8, ptr, ptr, ptr, ptr, ptr, i8, i8, i8, i8, i8, i8, i8, float, i32, i32, i32, i32, %struct.ImVec2, ptr, %struct.ImVec2, [5 x i8], float, float, i32, i8, i8, i8, i8, i32, [154 x %struct.ImGuiKeyData], i8, %struct.ImVec2, [5 x %struct.ImVec2], [5 x double], [5 x i8], [5 x i8], [5 x i16], [5 x i16], [5 x i8], [5 x i8], [5 x i8], i8, i8, [5 x float], [5 x float], [5 x float], float, i8, i8, i8, i8, i16, %struct.ImVector }
%struct.ImGuiKeyData = type { i8, float, float, float }
%struct.ImVector = type { i32, i32, ptr }

@.str.269 = private unnamed_addr constant [46 x i8] c"Double-click on title bar to collapse window.\00", align 1
@.str.270 = private unnamed_addr constant [99 x i8] c"Click and drag on lower corner to resize window\0A(double-click to auto fit window to its contents).\00", align 1
@.str.271 = private unnamed_addr constant [59 x i8] c"CTRL+Click on a slider or drag box to input value as text.\00", align 1
@.str.272 = private unnamed_addr constant [57 x i8] c"TAB/SHIFT+TAB to cycle through keyboard editable fields.\00", align 1
@.str.273 = private unnamed_addr constant [29 x i8] c"CTRL+Tab to select a window.\00", align 1
@.str.274 = private unnamed_addr constant [42 x i8] c"CTRL+Mouse Wheel to zoom window contents.\00", align 1
@.str.275 = private unnamed_addr constant [22 x i8] c"While inputing text:\0A\00", align 1
@.str.276 = private unnamed_addr constant [30 x i8] c"CTRL+Left/Right to word jump.\00", align 1
@.str.277 = private unnamed_addr constant [38 x i8] c"CTRL+A or double-click to select all.\00", align 1
@.str.278 = private unnamed_addr constant [44 x i8] c"CTRL+X/C/V to use clipboard cut/copy/paste.\00", align 1
@.str.279 = private unnamed_addr constant [28 x i8] c"CTRL+Z,CTRL+Y to undo/redo.\00", align 1
@.str.280 = private unnamed_addr constant [18 x i8] c"ESCAPE to revert.\00", align 1
@.str.281 = private unnamed_addr constant [34 x i8] c"With keyboard navigation enabled:\00", align 1
@.str.282 = private unnamed_addr constant [24 x i8] c"Arrow keys to navigate.\00", align 1
@.str.283 = private unnamed_addr constant [28 x i8] c"Space to activate a widget.\00", align 1
@.str.284 = private unnamed_addr constant [36 x i8] c"Return to input text into a widget.\00", align 1
@.str.285 = private unnamed_addr constant [63 x i8] c"Escape to deactivate a widget, close popup, exit child window.\00", align 1
@.str.286 = private unnamed_addr constant [43 x i8] c"Alt to jump to the menu layer of a window.\00", align 1

; Function Attrs: mustprogress uwtable
define dso_local void @_ZN5ImGui13ShowUserGuideEv() #0 {
  %1 = alloca ptr, align 8
  call void @llvm.lifetime.start.p0(i64 8, ptr %1) #7
  %2 = call noundef nonnull align 8 dereferenceable(2944) ptr @_ZN5ImGui5GetIOEv()
  store ptr %2, ptr %1, align 8, !tbaa !44
  call void (ptr, ...) @_ZN5ImGui10BulletTextEPKcz(ptr noundef @.str.269)
  call void (ptr, ...) @_ZN5ImGui10BulletTextEPKcz(ptr noundef @.str.270)
  call void (ptr, ...) @_ZN5ImGui10BulletTextEPKcz(ptr noundef @.str.271)
  call void (ptr, ...) @_ZN5ImGui10BulletTextEPKcz(ptr noundef @.str.272)
  call void (ptr, ...) @_ZN5ImGui10BulletTextEPKcz(ptr noundef @.str.273)
  %3 = load ptr, ptr %1, align 8, !tbaa !44
  %4 = getelementptr inbounds nuw %struct.ImGuiIO, ptr %3, i32 0, i32 10
  %5 = load i8, ptr %4, align 4, !tbaa !181, !range !13, !noundef !14
  %6 = trunc i8 %5 to i1
  br i1 %6, label %7, label %8

7:                                                ; preds = %0
  call void (ptr, ...) @_ZN5ImGui10BulletTextEPKcz(ptr noundef @.str.274)
  br label %8

8:                                                ; preds = %7, %0
  call void (ptr, ...) @_ZN5ImGui10BulletTextEPKcz(ptr noundef @.str.275)
  call void @_ZN5ImGui6IndentEf(float noundef 0.000000e+00)
  call void (ptr, ...) @_ZN5ImGui10BulletTextEPKcz(ptr noundef @.str.276)
  call void (ptr, ...) @_ZN5ImGui10BulletTextEPKcz(ptr noundef @.str.277)
  call void (ptr, ...) @_ZN5ImGui10BulletTextEPKcz(ptr noundef @.str.278)
  call void (ptr, ...) @_ZN5ImGui10BulletTextEPKcz(ptr noundef @.str.279)
  call void (ptr, ...) @_ZN5ImGui10BulletTextEPKcz(ptr noundef @.str.280)
  call void @_ZN5ImGui8UnindentEf(float noundef 0.000000e+00)
  call void (ptr, ...) @_ZN5ImGui10BulletTextEPKcz(ptr noundef @.str.281)
  call void @_ZN5ImGui6IndentEf(float noundef 0.000000e+00)
  call void (ptr, ...) @_ZN5ImGui10BulletTextEPKcz(ptr noundef @.str.282)
  call void (ptr, ...) @_ZN5ImGui10BulletTextEPKcz(ptr noundef @.str.283)
  call void (ptr, ...) @_ZN5ImGui10BulletTextEPKcz(ptr noundef @.str.284)
  call void (ptr, ...) @_ZN5ImGui10BulletTextEPKcz(ptr noundef @.str.285)
  call void (ptr, ...) @_ZN5ImGui10BulletTextEPKcz(ptr noundef @.str.286)
  call void @_ZN5ImGui8UnindentEf(float noundef 0.000000e+00)
  call void @llvm.lifetime.end.p0(i64 8, ptr %1) #7
  ret void
}