; Function Attrs: mustprogress uwtable
define dso_local void @_ZN5ImGui13ShowUserGuideEv() local_unnamed_addr #2 {
  %1 = tail call noundef nonnull align 8 dereferenceable(2944) ptr @_ZN5ImGui5GetIOEv()
  tail call void (ptr, ...) @_ZN5ImGui10BulletTextEPKcz(ptr noundef nonnull @.str.269)
  tail call void (ptr, ...) @_ZN5ImGui10BulletTextEPKcz(ptr noundef nonnull @.str.270)
  tail call void (ptr, ...) @_ZN5ImGui10BulletTextEPKcz(ptr noundef nonnull @.str.271)
  tail call void (ptr, ...) @_ZN5ImGui10BulletTextEPKcz(ptr noundef nonnull @.str.272)
  tail call void (ptr, ...) @_ZN5ImGui10BulletTextEPKcz(ptr noundef nonnull @.str.273)
  %2 = getelementptr inbounds nuw i8, ptr %1, i64 60
  %3 = load i8, ptr %2, align 4, !tbaa !220, !range !11, !noundef !12
  %4 = trunc nuw i8 %3 to i1
  br i1 %4, label %5, label %6

5:                                                ; preds = %0
  tail call void (ptr, ...) @_ZN5ImGui10BulletTextEPKcz(ptr noundef nonnull @.str.274)
  br label %6

6:                                                ; preds = %5, %0
  tail call void (ptr, ...) @_ZN5ImGui10BulletTextEPKcz(ptr noundef nonnull @.str.275)
  tail call void @_ZN5ImGui6IndentEf(float noundef 0.000000e+00)
  tail call void (ptr, ...) @_ZN5ImGui10BulletTextEPKcz(ptr noundef nonnull @.str.276)
  tail call void (ptr, ...) @_ZN5ImGui10BulletTextEPKcz(ptr noundef nonnull @.str.277)
  tail call void (ptr, ...) @_ZN5ImGui10BulletTextEPKcz(ptr noundef nonnull @.str.278)
  tail call void (ptr, ...) @_ZN5ImGui10BulletTextEPKcz(ptr noundef nonnull @.str.279)
  tail call void (ptr, ...) @_ZN5ImGui10BulletTextEPKcz(ptr noundef nonnull @.str.280)
  tail call void @_ZN5ImGui8UnindentEf(float noundef 0.000000e+00)
  tail call void (ptr, ...) @_ZN5ImGui10BulletTextEPKcz(ptr noundef nonnull @.str.281)
  tail call void @_ZN5ImGui6IndentEf(float noundef 0.000000e+00)
  tail call void (ptr, ...) @_ZN5ImGui10BulletTextEPKcz(ptr noundef nonnull @.str.282)
  tail call void (ptr, ...) @_ZN5ImGui10BulletTextEPKcz(ptr noundef nonnull @.str.283)
  tail call void (ptr, ...) @_ZN5ImGui10BulletTextEPKcz(ptr noundef nonnull @.str.284)
  tail call void (ptr, ...) @_ZN5ImGui10BulletTextEPKcz(ptr noundef nonnull @.str.285)
  tail call void (ptr, ...) @_ZN5ImGui10BulletTextEPKcz(ptr noundef nonnull @.str.286)
  tail call void @_ZN5ImGui8UnindentEf(float noundef 0.000000e+00)
  ret void
}